
C_Shanties.o:     file format elf64-x86-64


Disassembly of section .text:

0000000000000000 <barrettsPrivateers>:
   0:	55                   	push   %rbp
   1:	48 89 e5             	mov    %rsp,%rbp
   4:	48 8d 3d 00 00 00 00 	lea    0x0(%rip),%rdi        # b <barrettsPrivateers+0xb>
   b:	e8 00 00 00 00       	callq  10 <barrettsPrivateers+0x10>
  10:	48 8d 3d 00 00 00 00 	lea    0x0(%rip),%rdi        # 17 <barrettsPrivateers+0x17>
  17:	e8 00 00 00 00       	callq  1c <barrettsPrivateers+0x1c>
  1c:	bf 02 00 00 00       	mov    $0x2,%edi
  21:	e8 00 00 00 00       	callq  26 <barrettsPrivateers+0x26>
  26:	48 8d 3d 00 00 00 00 	lea    0x0(%rip),%rdi        # 2d <barrettsPrivateers+0x2d>
  2d:	e8 00 00 00 00       	callq  32 <barrettsPrivateers+0x32>
  32:	bf 02 00 00 00       	mov    $0x2,%edi
  37:	e8 00 00 00 00       	callq  3c <barrettsPrivateers+0x3c>
  3c:	48 8d 3d 00 00 00 00 	lea    0x0(%rip),%rdi        # 43 <barrettsPrivateers+0x43>
  43:	e8 00 00 00 00       	callq  48 <barrettsPrivateers+0x48>
  48:	bf 02 00 00 00       	mov    $0x2,%edi
  4d:	e8 00 00 00 00       	callq  52 <barrettsPrivateers+0x52>
  52:	48 8d 3d 00 00 00 00 	lea    0x0(%rip),%rdi        # 59 <barrettsPrivateers+0x59>
  59:	e8 00 00 00 00       	callq  5e <barrettsPrivateers+0x5e>
  5e:	bf 02 00 00 00       	mov    $0x2,%edi
  63:	e8 00 00 00 00       	callq  68 <barrettsPrivateers+0x68>
  68:	48 8d 3d 00 00 00 00 	lea    0x0(%rip),%rdi        # 6f <barrettsPrivateers+0x6f>
  6f:	e8 00 00 00 00       	callq  74 <barrettsPrivateers+0x74>
  74:	bf 02 00 00 00       	mov    $0x2,%edi
  79:	e8 00 00 00 00       	callq  7e <barrettsPrivateers+0x7e>
  7e:	48 8d 3d 00 00 00 00 	lea    0x0(%rip),%rdi        # 85 <barrettsPrivateers+0x85>
  85:	e8 00 00 00 00       	callq  8a <barrettsPrivateers+0x8a>
  8a:	bf 01 00 00 00       	mov    $0x1,%edi
  8f:	e8 00 00 00 00       	callq  94 <barrettsPrivateers+0x94>
  94:	48 8d 3d 00 00 00 00 	lea    0x0(%rip),%rdi        # 9b <barrettsPrivateers+0x9b>
  9b:	e8 00 00 00 00       	callq  a0 <barrettsPrivateers+0xa0>
  a0:	bf 02 00 00 00       	mov    $0x2,%edi
  a5:	e8 00 00 00 00       	callq  aa <barrettsPrivateers+0xaa>
  aa:	48 8d 3d 00 00 00 00 	lea    0x0(%rip),%rdi        # b1 <barrettsPrivateers+0xb1>
  b1:	e8 00 00 00 00       	callq  b6 <barrettsPrivateers+0xb6>
  b6:	bf 02 00 00 00       	mov    $0x2,%edi
  bb:	e8 00 00 00 00       	callq  c0 <barrettsPrivateers+0xc0>
  c0:	48 8d 3d 00 00 00 00 	lea    0x0(%rip),%rdi        # c7 <barrettsPrivateers+0xc7>
  c7:	e8 00 00 00 00       	callq  cc <barrettsPrivateers+0xcc>
  cc:	bf 02 00 00 00       	mov    $0x2,%edi
  d1:	e8 00 00 00 00       	callq  d6 <barrettsPrivateers+0xd6>
  d6:	48 8d 3d 00 00 00 00 	lea    0x0(%rip),%rdi        # dd <barrettsPrivateers+0xdd>
  dd:	e8 00 00 00 00       	callq  e2 <barrettsPrivateers+0xe2>
  e2:	bf 02 00 00 00       	mov    $0x2,%edi
  e7:	e8 00 00 00 00       	callq  ec <barrettsPrivateers+0xec>
  ec:	48 8d 3d 00 00 00 00 	lea    0x0(%rip),%rdi        # f3 <barrettsPrivateers+0xf3>
  f3:	e8 00 00 00 00       	callq  f8 <barrettsPrivateers+0xf8>
  f8:	bf 02 00 00 00       	mov    $0x2,%edi
  fd:	e8 00 00 00 00       	callq  102 <barrettsPrivateers+0x102>
 102:	48 8d 3d 00 00 00 00 	lea    0x0(%rip),%rdi        # 109 <barrettsPrivateers+0x109>
 109:	e8 00 00 00 00       	callq  10e <barrettsPrivateers+0x10e>
 10e:	bf 02 00 00 00       	mov    $0x2,%edi
 113:	e8 00 00 00 00       	callq  118 <barrettsPrivateers+0x118>
 118:	48 8d 3d 00 00 00 00 	lea    0x0(%rip),%rdi        # 11f <barrettsPrivateers+0x11f>
 11f:	e8 00 00 00 00       	callq  124 <barrettsPrivateers+0x124>
 124:	bf 02 00 00 00       	mov    $0x2,%edi
 129:	e8 00 00 00 00       	callq  12e <barrettsPrivateers+0x12e>
 12e:	48 8d 3d 00 00 00 00 	lea    0x0(%rip),%rdi        # 135 <barrettsPrivateers+0x135>
 135:	e8 00 00 00 00       	callq  13a <barrettsPrivateers+0x13a>
 13a:	bf 02 00 00 00       	mov    $0x2,%edi
 13f:	e8 00 00 00 00       	callq  144 <barrettsPrivateers+0x144>
 144:	48 8d 3d 00 00 00 00 	lea    0x0(%rip),%rdi        # 14b <barrettsPrivateers+0x14b>
 14b:	e8 00 00 00 00       	callq  150 <barrettsPrivateers+0x150>
 150:	bf 01 00 00 00       	mov    $0x1,%edi
 155:	e8 00 00 00 00       	callq  15a <barrettsPrivateers+0x15a>
 15a:	48 8d 3d 00 00 00 00 	lea    0x0(%rip),%rdi        # 161 <barrettsPrivateers+0x161>
 161:	e8 00 00 00 00       	callq  166 <barrettsPrivateers+0x166>
 166:	bf 02 00 00 00       	mov    $0x2,%edi
 16b:	e8 00 00 00 00       	callq  170 <barrettsPrivateers+0x170>
 170:	48 8d 3d 00 00 00 00 	lea    0x0(%rip),%rdi        # 177 <barrettsPrivateers+0x177>
 177:	e8 00 00 00 00       	callq  17c <barrettsPrivateers+0x17c>
 17c:	bf 02 00 00 00       	mov    $0x2,%edi
 181:	e8 00 00 00 00       	callq  186 <barrettsPrivateers+0x186>
 186:	48 8d 3d 00 00 00 00 	lea    0x0(%rip),%rdi        # 18d <barrettsPrivateers+0x18d>
 18d:	e8 00 00 00 00       	callq  192 <barrettsPrivateers+0x192>
 192:	bf 02 00 00 00       	mov    $0x2,%edi
 197:	e8 00 00 00 00       	callq  19c <barrettsPrivateers+0x19c>
 19c:	48 8d 3d 00 00 00 00 	lea    0x0(%rip),%rdi        # 1a3 <barrettsPrivateers+0x1a3>
 1a3:	e8 00 00 00 00       	callq  1a8 <barrettsPrivateers+0x1a8>
 1a8:	bf 02 00 00 00       	mov    $0x2,%edi
 1ad:	e8 00 00 00 00       	callq  1b2 <barrettsPrivateers+0x1b2>
 1b2:	48 8d 3d 00 00 00 00 	lea    0x0(%rip),%rdi        # 1b9 <barrettsPrivateers+0x1b9>
 1b9:	e8 00 00 00 00       	callq  1be <barrettsPrivateers+0x1be>
 1be:	bf 02 00 00 00       	mov    $0x2,%edi
 1c3:	e8 00 00 00 00       	callq  1c8 <barrettsPrivateers+0x1c8>
 1c8:	48 8d 3d 00 00 00 00 	lea    0x0(%rip),%rdi        # 1cf <barrettsPrivateers+0x1cf>
 1cf:	e8 00 00 00 00       	callq  1d4 <barrettsPrivateers+0x1d4>
 1d4:	bf 02 00 00 00       	mov    $0x2,%edi
 1d9:	e8 00 00 00 00       	callq  1de <barrettsPrivateers+0x1de>
 1de:	48 8d 3d 00 00 00 00 	lea    0x0(%rip),%rdi        # 1e5 <barrettsPrivateers+0x1e5>
 1e5:	e8 00 00 00 00       	callq  1ea <barrettsPrivateers+0x1ea>
 1ea:	bf 02 00 00 00       	mov    $0x2,%edi
 1ef:	e8 00 00 00 00       	callq  1f4 <barrettsPrivateers+0x1f4>
 1f4:	48 8d 3d 00 00 00 00 	lea    0x0(%rip),%rdi        # 1fb <barrettsPrivateers+0x1fb>
 1fb:	e8 00 00 00 00       	callq  200 <barrettsPrivateers+0x200>
 200:	bf 02 00 00 00       	mov    $0x2,%edi
 205:	e8 00 00 00 00       	callq  20a <barrettsPrivateers+0x20a>
 20a:	48 8d 3d 00 00 00 00 	lea    0x0(%rip),%rdi        # 211 <barrettsPrivateers+0x211>
 211:	e8 00 00 00 00       	callq  216 <barrettsPrivateers+0x216>
 216:	bf 01 00 00 00       	mov    $0x1,%edi
 21b:	e8 00 00 00 00       	callq  220 <barrettsPrivateers+0x220>
 220:	48 8d 3d 00 00 00 00 	lea    0x0(%rip),%rdi        # 227 <barrettsPrivateers+0x227>
 227:	e8 00 00 00 00       	callq  22c <barrettsPrivateers+0x22c>
 22c:	bf 02 00 00 00       	mov    $0x2,%edi
 231:	e8 00 00 00 00       	callq  236 <barrettsPrivateers+0x236>
 236:	48 8d 3d 00 00 00 00 	lea    0x0(%rip),%rdi        # 23d <barrettsPrivateers+0x23d>
 23d:	e8 00 00 00 00       	callq  242 <barrettsPrivateers+0x242>
 242:	bf 02 00 00 00       	mov    $0x2,%edi
 247:	e8 00 00 00 00       	callq  24c <barrettsPrivateers+0x24c>
 24c:	48 8d 3d 00 00 00 00 	lea    0x0(%rip),%rdi        # 253 <barrettsPrivateers+0x253>
 253:	e8 00 00 00 00       	callq  258 <barrettsPrivateers+0x258>
 258:	bf 02 00 00 00       	mov    $0x2,%edi
 25d:	e8 00 00 00 00       	callq  262 <barrettsPrivateers+0x262>
 262:	48 8d 3d 00 00 00 00 	lea    0x0(%rip),%rdi        # 269 <barrettsPrivateers+0x269>
 269:	e8 00 00 00 00       	callq  26e <barrettsPrivateers+0x26e>
 26e:	bf 02 00 00 00       	mov    $0x2,%edi
 273:	e8 00 00 00 00       	callq  278 <barrettsPrivateers+0x278>
 278:	48 8d 3d 00 00 00 00 	lea    0x0(%rip),%rdi        # 27f <barrettsPrivateers+0x27f>
 27f:	e8 00 00 00 00       	callq  284 <barrettsPrivateers+0x284>
 284:	bf 02 00 00 00       	mov    $0x2,%edi
 289:	e8 00 00 00 00       	callq  28e <barrettsPrivateers+0x28e>
 28e:	48 8d 3d 00 00 00 00 	lea    0x0(%rip),%rdi        # 295 <barrettsPrivateers+0x295>
 295:	e8 00 00 00 00       	callq  29a <barrettsPrivateers+0x29a>
 29a:	bf 02 00 00 00       	mov    $0x2,%edi
 29f:	e8 00 00 00 00       	callq  2a4 <barrettsPrivateers+0x2a4>
 2a4:	48 8d 3d 00 00 00 00 	lea    0x0(%rip),%rdi        # 2ab <barrettsPrivateers+0x2ab>
 2ab:	e8 00 00 00 00       	callq  2b0 <barrettsPrivateers+0x2b0>
 2b0:	bf 02 00 00 00       	mov    $0x2,%edi
 2b5:	e8 00 00 00 00       	callq  2ba <barrettsPrivateers+0x2ba>
 2ba:	48 8d 3d 00 00 00 00 	lea    0x0(%rip),%rdi        # 2c1 <barrettsPrivateers+0x2c1>
 2c1:	e8 00 00 00 00       	callq  2c6 <barrettsPrivateers+0x2c6>
 2c6:	bf 02 00 00 00       	mov    $0x2,%edi
 2cb:	e8 00 00 00 00       	callq  2d0 <barrettsPrivateers+0x2d0>
 2d0:	48 8d 3d 00 00 00 00 	lea    0x0(%rip),%rdi        # 2d7 <barrettsPrivateers+0x2d7>
 2d7:	e8 00 00 00 00       	callq  2dc <barrettsPrivateers+0x2dc>
 2dc:	bf 01 00 00 00       	mov    $0x1,%edi
 2e1:	e8 00 00 00 00       	callq  2e6 <barrettsPrivateers+0x2e6>
 2e6:	48 8d 3d 00 00 00 00 	lea    0x0(%rip),%rdi        # 2ed <barrettsPrivateers+0x2ed>
 2ed:	e8 00 00 00 00       	callq  2f2 <barrettsPrivateers+0x2f2>
 2f2:	bf 02 00 00 00       	mov    $0x2,%edi
 2f7:	e8 00 00 00 00       	callq  2fc <barrettsPrivateers+0x2fc>
 2fc:	48 8d 3d 00 00 00 00 	lea    0x0(%rip),%rdi        # 303 <barrettsPrivateers+0x303>
 303:	e8 00 00 00 00       	callq  308 <barrettsPrivateers+0x308>
 308:	bf 02 00 00 00       	mov    $0x2,%edi
 30d:	e8 00 00 00 00       	callq  312 <barrettsPrivateers+0x312>
 312:	48 8d 3d 00 00 00 00 	lea    0x0(%rip),%rdi        # 319 <barrettsPrivateers+0x319>
 319:	e8 00 00 00 00       	callq  31e <barrettsPrivateers+0x31e>
 31e:	bf 02 00 00 00       	mov    $0x2,%edi
 323:	e8 00 00 00 00       	callq  328 <barrettsPrivateers+0x328>
 328:	48 8d 3d 00 00 00 00 	lea    0x0(%rip),%rdi        # 32f <barrettsPrivateers+0x32f>
 32f:	e8 00 00 00 00       	callq  334 <barrettsPrivateers+0x334>
 334:	bf 02 00 00 00       	mov    $0x2,%edi
 339:	e8 00 00 00 00       	callq  33e <barrettsPrivateers+0x33e>
 33e:	48 8d 3d 00 00 00 00 	lea    0x0(%rip),%rdi        # 345 <barrettsPrivateers+0x345>
 345:	e8 00 00 00 00       	callq  34a <barrettsPrivateers+0x34a>
 34a:	bf 02 00 00 00       	mov    $0x2,%edi
 34f:	e8 00 00 00 00       	callq  354 <barrettsPrivateers+0x354>
 354:	48 8d 3d 00 00 00 00 	lea    0x0(%rip),%rdi        # 35b <barrettsPrivateers+0x35b>
 35b:	e8 00 00 00 00       	callq  360 <barrettsPrivateers+0x360>
 360:	bf 02 00 00 00       	mov    $0x2,%edi
 365:	e8 00 00 00 00       	callq  36a <barrettsPrivateers+0x36a>
 36a:	48 8d 3d 00 00 00 00 	lea    0x0(%rip),%rdi        # 371 <barrettsPrivateers+0x371>
 371:	e8 00 00 00 00       	callq  376 <barrettsPrivateers+0x376>
 376:	bf 02 00 00 00       	mov    $0x2,%edi
 37b:	e8 00 00 00 00       	callq  380 <barrettsPrivateers+0x380>
 380:	48 8d 3d 00 00 00 00 	lea    0x0(%rip),%rdi        # 387 <barrettsPrivateers+0x387>
 387:	e8 00 00 00 00       	callq  38c <barrettsPrivateers+0x38c>
 38c:	bf 02 00 00 00       	mov    $0x2,%edi
 391:	e8 00 00 00 00       	callq  396 <barrettsPrivateers+0x396>
 396:	48 8d 3d 00 00 00 00 	lea    0x0(%rip),%rdi        # 39d <barrettsPrivateers+0x39d>
 39d:	e8 00 00 00 00       	callq  3a2 <barrettsPrivateers+0x3a2>
 3a2:	bf 01 00 00 00       	mov    $0x1,%edi
 3a7:	e8 00 00 00 00       	callq  3ac <barrettsPrivateers+0x3ac>
 3ac:	48 8d 3d 00 00 00 00 	lea    0x0(%rip),%rdi        # 3b3 <barrettsPrivateers+0x3b3>
 3b3:	e8 00 00 00 00       	callq  3b8 <barrettsPrivateers+0x3b8>
 3b8:	bf 02 00 00 00       	mov    $0x2,%edi
 3bd:	e8 00 00 00 00       	callq  3c2 <barrettsPrivateers+0x3c2>
 3c2:	48 8d 3d 00 00 00 00 	lea    0x0(%rip),%rdi        # 3c9 <barrettsPrivateers+0x3c9>
 3c9:	e8 00 00 00 00       	callq  3ce <barrettsPrivateers+0x3ce>
 3ce:	bf 02 00 00 00       	mov    $0x2,%edi
 3d3:	e8 00 00 00 00       	callq  3d8 <barrettsPrivateers+0x3d8>
 3d8:	48 8d 3d 00 00 00 00 	lea    0x0(%rip),%rdi        # 3df <barrettsPrivateers+0x3df>
 3df:	e8 00 00 00 00       	callq  3e4 <barrettsPrivateers+0x3e4>
 3e4:	bf 02 00 00 00       	mov    $0x2,%edi
 3e9:	e8 00 00 00 00       	callq  3ee <barrettsPrivateers+0x3ee>
 3ee:	48 8d 3d 00 00 00 00 	lea    0x0(%rip),%rdi        # 3f5 <barrettsPrivateers+0x3f5>
 3f5:	e8 00 00 00 00       	callq  3fa <barrettsPrivateers+0x3fa>
 3fa:	bf 02 00 00 00       	mov    $0x2,%edi
 3ff:	e8 00 00 00 00       	callq  404 <barrettsPrivateers+0x404>
 404:	48 8d 3d 00 00 00 00 	lea    0x0(%rip),%rdi        # 40b <barrettsPrivateers+0x40b>
 40b:	e8 00 00 00 00       	callq  410 <barrettsPrivateers+0x410>
 410:	bf 02 00 00 00       	mov    $0x2,%edi
 415:	e8 00 00 00 00       	callq  41a <barrettsPrivateers+0x41a>
 41a:	48 8d 3d 00 00 00 00 	lea    0x0(%rip),%rdi        # 421 <barrettsPrivateers+0x421>
 421:	e8 00 00 00 00       	callq  426 <barrettsPrivateers+0x426>
 426:	bf 02 00 00 00       	mov    $0x2,%edi
 42b:	e8 00 00 00 00       	callq  430 <barrettsPrivateers+0x430>
 430:	48 8d 3d 00 00 00 00 	lea    0x0(%rip),%rdi        # 437 <barrettsPrivateers+0x437>
 437:	e8 00 00 00 00       	callq  43c <barrettsPrivateers+0x43c>
 43c:	bf 02 00 00 00       	mov    $0x2,%edi
 441:	e8 00 00 00 00       	callq  446 <barrettsPrivateers+0x446>
 446:	48 8d 3d 00 00 00 00 	lea    0x0(%rip),%rdi        # 44d <barrettsPrivateers+0x44d>
 44d:	e8 00 00 00 00       	callq  452 <barrettsPrivateers+0x452>
 452:	bf 02 00 00 00       	mov    $0x2,%edi
 457:	e8 00 00 00 00       	callq  45c <barrettsPrivateers+0x45c>
 45c:	48 8d 3d 00 00 00 00 	lea    0x0(%rip),%rdi        # 463 <barrettsPrivateers+0x463>
 463:	e8 00 00 00 00       	callq  468 <barrettsPrivateers+0x468>
 468:	bf 01 00 00 00       	mov    $0x1,%edi
 46d:	e8 00 00 00 00       	callq  472 <barrettsPrivateers+0x472>
 472:	48 8d 3d 00 00 00 00 	lea    0x0(%rip),%rdi        # 479 <barrettsPrivateers+0x479>
 479:	e8 00 00 00 00       	callq  47e <barrettsPrivateers+0x47e>
 47e:	bf 02 00 00 00       	mov    $0x2,%edi
 483:	e8 00 00 00 00       	callq  488 <barrettsPrivateers+0x488>
 488:	48 8d 3d 00 00 00 00 	lea    0x0(%rip),%rdi        # 48f <barrettsPrivateers+0x48f>
 48f:	e8 00 00 00 00       	callq  494 <barrettsPrivateers+0x494>
 494:	bf 02 00 00 00       	mov    $0x2,%edi
 499:	e8 00 00 00 00       	callq  49e <barrettsPrivateers+0x49e>
 49e:	48 8d 3d 00 00 00 00 	lea    0x0(%rip),%rdi        # 4a5 <barrettsPrivateers+0x4a5>
 4a5:	e8 00 00 00 00       	callq  4aa <barrettsPrivateers+0x4aa>
 4aa:	bf 02 00 00 00       	mov    $0x2,%edi
 4af:	e8 00 00 00 00       	callq  4b4 <barrettsPrivateers+0x4b4>
 4b4:	48 8d 3d 00 00 00 00 	lea    0x0(%rip),%rdi        # 4bb <barrettsPrivateers+0x4bb>
 4bb:	e8 00 00 00 00       	callq  4c0 <barrettsPrivateers+0x4c0>
 4c0:	bf 02 00 00 00       	mov    $0x2,%edi
 4c5:	e8 00 00 00 00       	callq  4ca <barrettsPrivateers+0x4ca>
 4ca:	48 8d 3d 00 00 00 00 	lea    0x0(%rip),%rdi        # 4d1 <barrettsPrivateers+0x4d1>
 4d1:	e8 00 00 00 00       	callq  4d6 <barrettsPrivateers+0x4d6>
 4d6:	bf 02 00 00 00       	mov    $0x2,%edi
 4db:	e8 00 00 00 00       	callq  4e0 <barrettsPrivateers+0x4e0>
 4e0:	48 8d 3d 00 00 00 00 	lea    0x0(%rip),%rdi        # 4e7 <barrettsPrivateers+0x4e7>
 4e7:	e8 00 00 00 00       	callq  4ec <barrettsPrivateers+0x4ec>
 4ec:	bf 02 00 00 00       	mov    $0x2,%edi
 4f1:	e8 00 00 00 00       	callq  4f6 <barrettsPrivateers+0x4f6>
 4f6:	48 8d 3d 00 00 00 00 	lea    0x0(%rip),%rdi        # 4fd <barrettsPrivateers+0x4fd>
 4fd:	e8 00 00 00 00       	callq  502 <barrettsPrivateers+0x502>
 502:	bf 02 00 00 00       	mov    $0x2,%edi
 507:	e8 00 00 00 00       	callq  50c <barrettsPrivateers+0x50c>
 50c:	48 8d 3d 00 00 00 00 	lea    0x0(%rip),%rdi        # 513 <barrettsPrivateers+0x513>
 513:	e8 00 00 00 00       	callq  518 <barrettsPrivateers+0x518>
 518:	bf 02 00 00 00       	mov    $0x2,%edi
 51d:	e8 00 00 00 00       	callq  522 <barrettsPrivateers+0x522>
 522:	48 8d 3d 00 00 00 00 	lea    0x0(%rip),%rdi        # 529 <barrettsPrivateers+0x529>
 529:	e8 00 00 00 00       	callq  52e <barrettsPrivateers+0x52e>
 52e:	bf 01 00 00 00       	mov    $0x1,%edi
 533:	e8 00 00 00 00       	callq  538 <barrettsPrivateers+0x538>
 538:	48 8d 3d 00 00 00 00 	lea    0x0(%rip),%rdi        # 53f <barrettsPrivateers+0x53f>
 53f:	e8 00 00 00 00       	callq  544 <barrettsPrivateers+0x544>
 544:	bf 02 00 00 00       	mov    $0x2,%edi
 549:	e8 00 00 00 00       	callq  54e <barrettsPrivateers+0x54e>
 54e:	48 8d 3d 00 00 00 00 	lea    0x0(%rip),%rdi        # 555 <barrettsPrivateers+0x555>
 555:	e8 00 00 00 00       	callq  55a <barrettsPrivateers+0x55a>
 55a:	bf 02 00 00 00       	mov    $0x2,%edi
 55f:	e8 00 00 00 00       	callq  564 <barrettsPrivateers+0x564>
 564:	48 8d 3d 00 00 00 00 	lea    0x0(%rip),%rdi        # 56b <barrettsPrivateers+0x56b>
 56b:	e8 00 00 00 00       	callq  570 <barrettsPrivateers+0x570>
 570:	bf 02 00 00 00       	mov    $0x2,%edi
 575:	e8 00 00 00 00       	callq  57a <barrettsPrivateers+0x57a>
 57a:	48 8d 3d 00 00 00 00 	lea    0x0(%rip),%rdi        # 581 <barrettsPrivateers+0x581>
 581:	e8 00 00 00 00       	callq  586 <barrettsPrivateers+0x586>
 586:	bf 02 00 00 00       	mov    $0x2,%edi
 58b:	e8 00 00 00 00       	callq  590 <barrettsPrivateers+0x590>
 590:	48 8d 3d 00 00 00 00 	lea    0x0(%rip),%rdi        # 597 <barrettsPrivateers+0x597>
 597:	e8 00 00 00 00       	callq  59c <barrettsPrivateers+0x59c>
 59c:	bf 02 00 00 00       	mov    $0x2,%edi
 5a1:	e8 00 00 00 00       	callq  5a6 <barrettsPrivateers+0x5a6>
 5a6:	48 8d 3d 00 00 00 00 	lea    0x0(%rip),%rdi        # 5ad <barrettsPrivateers+0x5ad>
 5ad:	e8 00 00 00 00       	callq  5b2 <barrettsPrivateers+0x5b2>
 5b2:	bf 02 00 00 00       	mov    $0x2,%edi
 5b7:	e8 00 00 00 00       	callq  5bc <barrettsPrivateers+0x5bc>
 5bc:	48 8d 3d 00 00 00 00 	lea    0x0(%rip),%rdi        # 5c3 <barrettsPrivateers+0x5c3>
 5c3:	e8 00 00 00 00       	callq  5c8 <barrettsPrivateers+0x5c8>
 5c8:	bf 02 00 00 00       	mov    $0x2,%edi
 5cd:	e8 00 00 00 00       	callq  5d2 <barrettsPrivateers+0x5d2>
 5d2:	48 8d 3d 00 00 00 00 	lea    0x0(%rip),%rdi        # 5d9 <barrettsPrivateers+0x5d9>
 5d9:	e8 00 00 00 00       	callq  5de <barrettsPrivateers+0x5de>
 5de:	bf 02 00 00 00       	mov    $0x2,%edi
 5e3:	e8 00 00 00 00       	callq  5e8 <barrettsPrivateers+0x5e8>
 5e8:	48 8d 3d 00 00 00 00 	lea    0x0(%rip),%rdi        # 5ef <barrettsPrivateers+0x5ef>
 5ef:	e8 00 00 00 00       	callq  5f4 <barrettsPrivateers+0x5f4>
 5f4:	bf 01 00 00 00       	mov    $0x1,%edi
 5f9:	e8 00 00 00 00       	callq  5fe <barrettsPrivateers+0x5fe>
 5fe:	48 8d 3d 00 00 00 00 	lea    0x0(%rip),%rdi        # 605 <barrettsPrivateers+0x605>
 605:	e8 00 00 00 00       	callq  60a <barrettsPrivateers+0x60a>
 60a:	bf 02 00 00 00       	mov    $0x2,%edi
 60f:	e8 00 00 00 00       	callq  614 <barrettsPrivateers+0x614>
 614:	48 8d 3d 00 00 00 00 	lea    0x0(%rip),%rdi        # 61b <barrettsPrivateers+0x61b>
 61b:	e8 00 00 00 00       	callq  620 <barrettsPrivateers+0x620>
 620:	bf 02 00 00 00       	mov    $0x2,%edi
 625:	e8 00 00 00 00       	callq  62a <barrettsPrivateers+0x62a>
 62a:	48 8d 3d 00 00 00 00 	lea    0x0(%rip),%rdi        # 631 <barrettsPrivateers+0x631>
 631:	e8 00 00 00 00       	callq  636 <barrettsPrivateers+0x636>
 636:	bf 02 00 00 00       	mov    $0x2,%edi
 63b:	e8 00 00 00 00       	callq  640 <barrettsPrivateers+0x640>
 640:	48 8d 3d 00 00 00 00 	lea    0x0(%rip),%rdi        # 647 <barrettsPrivateers+0x647>
 647:	e8 00 00 00 00       	callq  64c <barrettsPrivateers+0x64c>
 64c:	bf 02 00 00 00       	mov    $0x2,%edi
 651:	e8 00 00 00 00       	callq  656 <barrettsPrivateers+0x656>
 656:	48 8d 3d 00 00 00 00 	lea    0x0(%rip),%rdi        # 65d <barrettsPrivateers+0x65d>
 65d:	e8 00 00 00 00       	callq  662 <barrettsPrivateers+0x662>
 662:	bf 03 00 00 00       	mov    $0x3,%edi
 667:	e8 00 00 00 00       	callq  66c <barrettsPrivateers+0x66c>
 66c:	48 8d 3d 00 00 00 00 	lea    0x0(%rip),%rdi        # 673 <barrettsPrivateers+0x673>
 673:	e8 00 00 00 00       	callq  678 <barrettsPrivateers+0x678>
 678:	bf 03 00 00 00       	mov    $0x3,%edi
 67d:	e8 00 00 00 00       	callq  682 <barrettsPrivateers+0x682>
 682:	48 8d 3d 00 00 00 00 	lea    0x0(%rip),%rdi        # 689 <barrettsPrivateers+0x689>
 689:	e8 00 00 00 00       	callq  68e <barrettsPrivateers+0x68e>
 68e:	bf 03 00 00 00       	mov    $0x3,%edi
 693:	e8 00 00 00 00       	callq  698 <barrettsPrivateers+0x698>
 698:	48 8d 3d 00 00 00 00 	lea    0x0(%rip),%rdi        # 69f <barrettsPrivateers+0x69f>
 69f:	e8 00 00 00 00       	callq  6a4 <barrettsPrivateers+0x6a4>
 6a4:	bf 03 00 00 00       	mov    $0x3,%edi
 6a9:	e8 00 00 00 00       	callq  6ae <barrettsPrivateers+0x6ae>
 6ae:	48 8d 3d 00 00 00 00 	lea    0x0(%rip),%rdi        # 6b5 <barrettsPrivateers+0x6b5>
 6b5:	e8 00 00 00 00       	callq  6ba <barrettsPrivateers+0x6ba>
 6ba:	bf 02 00 00 00       	mov    $0x2,%edi
 6bf:	e8 00 00 00 00       	callq  6c4 <barrettsPrivateers+0x6c4>
 6c4:	48 8d 3d 00 00 00 00 	lea    0x0(%rip),%rdi        # 6cb <barrettsPrivateers+0x6cb>
 6cb:	e8 00 00 00 00       	callq  6d0 <barrettsPrivateers+0x6d0>
 6d0:	bf 03 00 00 00       	mov    $0x3,%edi
 6d5:	e8 00 00 00 00       	callq  6da <barrettsPrivateers+0x6da>
 6da:	48 8d 3d 00 00 00 00 	lea    0x0(%rip),%rdi        # 6e1 <barrettsPrivateers+0x6e1>
 6e1:	e8 00 00 00 00       	callq  6e6 <barrettsPrivateers+0x6e6>
 6e6:	bf 03 00 00 00       	mov    $0x3,%edi
 6eb:	e8 00 00 00 00       	callq  6f0 <barrettsPrivateers+0x6f0>
 6f0:	48 8d 3d 00 00 00 00 	lea    0x0(%rip),%rdi        # 6f7 <barrettsPrivateers+0x6f7>
 6f7:	e8 00 00 00 00       	callq  6fc <barrettsPrivateers+0x6fc>
 6fc:	bf 03 00 00 00       	mov    $0x3,%edi
 701:	e8 00 00 00 00       	callq  706 <barrettsPrivateers+0x706>
 706:	48 8d 3d 00 00 00 00 	lea    0x0(%rip),%rdi        # 70d <barrettsPrivateers+0x70d>
 70d:	e8 00 00 00 00       	callq  712 <barrettsPrivateers+0x712>
 712:	bf 04 00 00 00       	mov    $0x4,%edi
 717:	e8 00 00 00 00       	callq  71c <barrettsPrivateers+0x71c>
 71c:	48 8d 3d 00 00 00 00 	lea    0x0(%rip),%rdi        # 723 <barrettsPrivateers+0x723>
 723:	e8 00 00 00 00       	callq  728 <barrettsPrivateers+0x728>
 728:	90                   	nop
 729:	5d                   	pop    %rbp
 72a:	c3                   	retq   
