
products.o:     file format elf64-x86-64


Disassembly of section .text:

0000000000000000 <prod2>:
   0:	55                   	push   %rbp
   1:	48 89 e5             	mov    %rsp,%rbp
   4:	89 7d fc             	mov    %edi,-0x4(%rbp)
   7:	89 75 f8             	mov    %esi,-0x8(%rbp)
   a:	48 8b 05 00 00 00 00 	mov    0x0(%rip),%rax        # 11 <prod2+0x11>
  11:	8b 00                	mov    (%rax),%eax
  13:	0f af 45 fc          	imul   -0x4(%rbp),%eax
  17:	89 c2                	mov    %eax,%edx
  19:	48 8b 05 00 00 00 00 	mov    0x0(%rip),%rax        # 20 <prod2+0x20>
  20:	89 10                	mov    %edx,(%rax)
  22:	8b 45 fc             	mov    -0x4(%rbp),%eax
  25:	0f af 45 f8          	imul   -0x8(%rbp),%eax
  29:	5d                   	pop    %rbp
  2a:	c3                   	retq   

000000000000002b <prod3>:
  2b:	55                   	push   %rbp
  2c:	48 89 e5             	mov    %rsp,%rbp
  2f:	89 7d fc             	mov    %edi,-0x4(%rbp)
  32:	89 75 f8             	mov    %esi,-0x8(%rbp)
  35:	89 55 f4             	mov    %edx,-0xc(%rbp)
  38:	8b 45 fc             	mov    -0x4(%rbp),%eax
  3b:	0f af 45 f8          	imul   -0x8(%rbp),%eax
  3f:	0f af 45 f4          	imul   -0xc(%rbp),%eax
  43:	5d                   	pop    %rbp
  44:	c3                   	retq   

0000000000000045 <prod4>:
  45:	55                   	push   %rbp
  46:	48 89 e5             	mov    %rsp,%rbp
  49:	89 7d fc             	mov    %edi,-0x4(%rbp)
  4c:	89 75 f8             	mov    %esi,-0x8(%rbp)
  4f:	89 55 f4             	mov    %edx,-0xc(%rbp)
  52:	89 4d f0             	mov    %ecx,-0x10(%rbp)
  55:	8b 45 fc             	mov    -0x4(%rbp),%eax
  58:	0f af 45 f8          	imul   -0x8(%rbp),%eax
  5c:	0f af 45 f4          	imul   -0xc(%rbp),%eax
  60:	0f af 45 f0          	imul   -0x10(%rbp),%eax
  64:	5d                   	pop    %rbp
  65:	c3                   	retq   
