
C_Shanties.o:     file format elf64-x86-64


Disassembly of section .text:

0000000000000000 <barrettsPrivateers>:
   0:	55                   	push   %rbp
   1:	48 89 e5             	mov    %rsp,%rbp
   4:	bf 00 00 00 00       	mov    $0x0,%edi
   9:	e8 00 00 00 00       	callq  e <barrettsPrivateers+0xe>
   e:	bf 00 00 00 00       	mov    $0x0,%edi
  13:	e8 00 00 00 00       	callq  18 <barrettsPrivateers+0x18>
  18:	bf 02 00 00 00       	mov    $0x2,%edi
  1d:	e8 00 00 00 00       	callq  22 <barrettsPrivateers+0x22>
  22:	bf 00 00 00 00       	mov    $0x0,%edi
  27:	e8 00 00 00 00       	callq  2c <barrettsPrivateers+0x2c>
  2c:	bf 02 00 00 00       	mov    $0x2,%edi
  31:	e8 00 00 00 00       	callq  36 <barrettsPrivateers+0x36>
  36:	bf 00 00 00 00       	mov    $0x0,%edi
  3b:	e8 00 00 00 00       	callq  40 <barrettsPrivateers+0x40>
  40:	bf 02 00 00 00       	mov    $0x2,%edi
  45:	e8 00 00 00 00       	callq  4a <barrettsPrivateers+0x4a>
  4a:	bf 00 00 00 00       	mov    $0x0,%edi
  4f:	e8 00 00 00 00       	callq  54 <barrettsPrivateers+0x54>
  54:	bf 02 00 00 00       	mov    $0x2,%edi
  59:	e8 00 00 00 00       	callq  5e <barrettsPrivateers+0x5e>
  5e:	bf 00 00 00 00       	mov    $0x0,%edi
  63:	e8 00 00 00 00       	callq  68 <barrettsPrivateers+0x68>
  68:	bf 02 00 00 00       	mov    $0x2,%edi
  6d:	e8 00 00 00 00       	callq  72 <barrettsPrivateers+0x72>
  72:	bf 00 00 00 00       	mov    $0x0,%edi
  77:	e8 00 00 00 00       	callq  7c <barrettsPrivateers+0x7c>
  7c:	bf 01 00 00 00       	mov    $0x1,%edi
  81:	e8 00 00 00 00       	callq  86 <barrettsPrivateers+0x86>
  86:	bf 00 00 00 00       	mov    $0x0,%edi
  8b:	e8 00 00 00 00       	callq  90 <barrettsPrivateers+0x90>
  90:	bf 02 00 00 00       	mov    $0x2,%edi
  95:	e8 00 00 00 00       	callq  9a <barrettsPrivateers+0x9a>
  9a:	bf 00 00 00 00       	mov    $0x0,%edi
  9f:	e8 00 00 00 00       	callq  a4 <barrettsPrivateers+0xa4>
  a4:	bf 02 00 00 00       	mov    $0x2,%edi
  a9:	e8 00 00 00 00       	callq  ae <barrettsPrivateers+0xae>
  ae:	bf 00 00 00 00       	mov    $0x0,%edi
  b3:	e8 00 00 00 00       	callq  b8 <barrettsPrivateers+0xb8>
  b8:	bf 02 00 00 00       	mov    $0x2,%edi
  bd:	e8 00 00 00 00       	callq  c2 <barrettsPrivateers+0xc2>
  c2:	bf 00 00 00 00       	mov    $0x0,%edi
  c7:	e8 00 00 00 00       	callq  cc <barrettsPrivateers+0xcc>
  cc:	bf 02 00 00 00       	mov    $0x2,%edi
  d1:	e8 00 00 00 00       	callq  d6 <barrettsPrivateers+0xd6>
  d6:	bf 00 00 00 00       	mov    $0x0,%edi
  db:	e8 00 00 00 00       	callq  e0 <barrettsPrivateers+0xe0>
  e0:	bf 02 00 00 00       	mov    $0x2,%edi
  e5:	e8 00 00 00 00       	callq  ea <barrettsPrivateers+0xea>
  ea:	bf 00 00 00 00       	mov    $0x0,%edi
  ef:	e8 00 00 00 00       	callq  f4 <barrettsPrivateers+0xf4>
  f4:	bf 02 00 00 00       	mov    $0x2,%edi
  f9:	e8 00 00 00 00       	callq  fe <barrettsPrivateers+0xfe>
  fe:	bf 00 00 00 00       	mov    $0x0,%edi
 103:	e8 00 00 00 00       	callq  108 <barrettsPrivateers+0x108>
 108:	bf 02 00 00 00       	mov    $0x2,%edi
 10d:	e8 00 00 00 00       	callq  112 <barrettsPrivateers+0x112>
 112:	bf 00 00 00 00       	mov    $0x0,%edi
 117:	e8 00 00 00 00       	callq  11c <barrettsPrivateers+0x11c>
 11c:	bf 02 00 00 00       	mov    $0x2,%edi
 121:	e8 00 00 00 00       	callq  126 <barrettsPrivateers+0x126>
 126:	bf 00 00 00 00       	mov    $0x0,%edi
 12b:	e8 00 00 00 00       	callq  130 <barrettsPrivateers+0x130>
 130:	bf 01 00 00 00       	mov    $0x1,%edi
 135:	e8 00 00 00 00       	callq  13a <barrettsPrivateers+0x13a>
 13a:	bf 00 00 00 00       	mov    $0x0,%edi
 13f:	e8 00 00 00 00       	callq  144 <barrettsPrivateers+0x144>
 144:	bf 02 00 00 00       	mov    $0x2,%edi
 149:	e8 00 00 00 00       	callq  14e <barrettsPrivateers+0x14e>
 14e:	bf 00 00 00 00       	mov    $0x0,%edi
 153:	e8 00 00 00 00       	callq  158 <barrettsPrivateers+0x158>
 158:	bf 02 00 00 00       	mov    $0x2,%edi
 15d:	e8 00 00 00 00       	callq  162 <barrettsPrivateers+0x162>
 162:	bf 00 00 00 00       	mov    $0x0,%edi
 167:	e8 00 00 00 00       	callq  16c <barrettsPrivateers+0x16c>
 16c:	bf 02 00 00 00       	mov    $0x2,%edi
 171:	e8 00 00 00 00       	callq  176 <barrettsPrivateers+0x176>
 176:	bf 00 00 00 00       	mov    $0x0,%edi
 17b:	e8 00 00 00 00       	callq  180 <barrettsPrivateers+0x180>
 180:	bf 02 00 00 00       	mov    $0x2,%edi
 185:	e8 00 00 00 00       	callq  18a <barrettsPrivateers+0x18a>
 18a:	bf 00 00 00 00       	mov    $0x0,%edi
 18f:	e8 00 00 00 00       	callq  194 <barrettsPrivateers+0x194>
 194:	bf 02 00 00 00       	mov    $0x2,%edi
 199:	e8 00 00 00 00       	callq  19e <barrettsPrivateers+0x19e>
 19e:	bf 00 00 00 00       	mov    $0x0,%edi
 1a3:	e8 00 00 00 00       	callq  1a8 <barrettsPrivateers+0x1a8>
 1a8:	bf 02 00 00 00       	mov    $0x2,%edi
 1ad:	e8 00 00 00 00       	callq  1b2 <barrettsPrivateers+0x1b2>
 1b2:	bf 00 00 00 00       	mov    $0x0,%edi
 1b7:	e8 00 00 00 00       	callq  1bc <barrettsPrivateers+0x1bc>
 1bc:	bf 02 00 00 00       	mov    $0x2,%edi
 1c1:	e8 00 00 00 00       	callq  1c6 <barrettsPrivateers+0x1c6>
 1c6:	bf 00 00 00 00       	mov    $0x0,%edi
 1cb:	e8 00 00 00 00       	callq  1d0 <barrettsPrivateers+0x1d0>
 1d0:	bf 02 00 00 00       	mov    $0x2,%edi
 1d5:	e8 00 00 00 00       	callq  1da <barrettsPrivateers+0x1da>
 1da:	bf 00 00 00 00       	mov    $0x0,%edi
 1df:	e8 00 00 00 00       	callq  1e4 <barrettsPrivateers+0x1e4>
 1e4:	bf 01 00 00 00       	mov    $0x1,%edi
 1e9:	e8 00 00 00 00       	callq  1ee <barrettsPrivateers+0x1ee>
 1ee:	bf 00 00 00 00       	mov    $0x0,%edi
 1f3:	e8 00 00 00 00       	callq  1f8 <barrettsPrivateers+0x1f8>
 1f8:	bf 02 00 00 00       	mov    $0x2,%edi
 1fd:	e8 00 00 00 00       	callq  202 <barrettsPrivateers+0x202>
 202:	bf 00 00 00 00       	mov    $0x0,%edi
 207:	e8 00 00 00 00       	callq  20c <barrettsPrivateers+0x20c>
 20c:	bf 02 00 00 00       	mov    $0x2,%edi
 211:	e8 00 00 00 00       	callq  216 <barrettsPrivateers+0x216>
 216:	bf 00 00 00 00       	mov    $0x0,%edi
 21b:	e8 00 00 00 00       	callq  220 <barrettsPrivateers+0x220>
 220:	bf 02 00 00 00       	mov    $0x2,%edi
 225:	e8 00 00 00 00       	callq  22a <barrettsPrivateers+0x22a>
 22a:	bf 00 00 00 00       	mov    $0x0,%edi
 22f:	e8 00 00 00 00       	callq  234 <barrettsPrivateers+0x234>
 234:	bf 02 00 00 00       	mov    $0x2,%edi
 239:	e8 00 00 00 00       	callq  23e <barrettsPrivateers+0x23e>
 23e:	bf 00 00 00 00       	mov    $0x0,%edi
 243:	e8 00 00 00 00       	callq  248 <barrettsPrivateers+0x248>
 248:	bf 02 00 00 00       	mov    $0x2,%edi
 24d:	e8 00 00 00 00       	callq  252 <barrettsPrivateers+0x252>
 252:	bf 00 00 00 00       	mov    $0x0,%edi
 257:	e8 00 00 00 00       	callq  25c <barrettsPrivateers+0x25c>
 25c:	bf 02 00 00 00       	mov    $0x2,%edi
 261:	e8 00 00 00 00       	callq  266 <barrettsPrivateers+0x266>
 266:	bf 00 00 00 00       	mov    $0x0,%edi
 26b:	e8 00 00 00 00       	callq  270 <barrettsPrivateers+0x270>
 270:	bf 02 00 00 00       	mov    $0x2,%edi
 275:	e8 00 00 00 00       	callq  27a <barrettsPrivateers+0x27a>
 27a:	bf 00 00 00 00       	mov    $0x0,%edi
 27f:	e8 00 00 00 00       	callq  284 <barrettsPrivateers+0x284>
 284:	bf 02 00 00 00       	mov    $0x2,%edi
 289:	e8 00 00 00 00       	callq  28e <barrettsPrivateers+0x28e>
 28e:	bf 00 00 00 00       	mov    $0x0,%edi
 293:	e8 00 00 00 00       	callq  298 <barrettsPrivateers+0x298>
 298:	bf 01 00 00 00       	mov    $0x1,%edi
 29d:	e8 00 00 00 00       	callq  2a2 <barrettsPrivateers+0x2a2>
 2a2:	bf 00 00 00 00       	mov    $0x0,%edi
 2a7:	e8 00 00 00 00       	callq  2ac <barrettsPrivateers+0x2ac>
 2ac:	bf 02 00 00 00       	mov    $0x2,%edi
 2b1:	e8 00 00 00 00       	callq  2b6 <barrettsPrivateers+0x2b6>
 2b6:	bf 00 00 00 00       	mov    $0x0,%edi
 2bb:	e8 00 00 00 00       	callq  2c0 <barrettsPrivateers+0x2c0>
 2c0:	bf 02 00 00 00       	mov    $0x2,%edi
 2c5:	e8 00 00 00 00       	callq  2ca <barrettsPrivateers+0x2ca>
 2ca:	bf 00 00 00 00       	mov    $0x0,%edi
 2cf:	e8 00 00 00 00       	callq  2d4 <barrettsPrivateers+0x2d4>
 2d4:	bf 02 00 00 00       	mov    $0x2,%edi
 2d9:	e8 00 00 00 00       	callq  2de <barrettsPrivateers+0x2de>
 2de:	bf 00 00 00 00       	mov    $0x0,%edi
 2e3:	e8 00 00 00 00       	callq  2e8 <barrettsPrivateers+0x2e8>
 2e8:	bf 02 00 00 00       	mov    $0x2,%edi
 2ed:	e8 00 00 00 00       	callq  2f2 <barrettsPrivateers+0x2f2>
 2f2:	bf 00 00 00 00       	mov    $0x0,%edi
 2f7:	e8 00 00 00 00       	callq  2fc <barrettsPrivateers+0x2fc>
 2fc:	bf 02 00 00 00       	mov    $0x2,%edi
 301:	e8 00 00 00 00       	callq  306 <barrettsPrivateers+0x306>
 306:	bf 00 00 00 00       	mov    $0x0,%edi
 30b:	e8 00 00 00 00       	callq  310 <barrettsPrivateers+0x310>
 310:	bf 02 00 00 00       	mov    $0x2,%edi
 315:	e8 00 00 00 00       	callq  31a <barrettsPrivateers+0x31a>
 31a:	bf 00 00 00 00       	mov    $0x0,%edi
 31f:	e8 00 00 00 00       	callq  324 <barrettsPrivateers+0x324>
 324:	bf 02 00 00 00       	mov    $0x2,%edi
 329:	e8 00 00 00 00       	callq  32e <barrettsPrivateers+0x32e>
 32e:	bf 00 00 00 00       	mov    $0x0,%edi
 333:	e8 00 00 00 00       	callq  338 <barrettsPrivateers+0x338>
 338:	bf 02 00 00 00       	mov    $0x2,%edi
 33d:	e8 00 00 00 00       	callq  342 <barrettsPrivateers+0x342>
 342:	bf 00 00 00 00       	mov    $0x0,%edi
 347:	e8 00 00 00 00       	callq  34c <barrettsPrivateers+0x34c>
 34c:	bf 01 00 00 00       	mov    $0x1,%edi
 351:	e8 00 00 00 00       	callq  356 <barrettsPrivateers+0x356>
 356:	bf 00 00 00 00       	mov    $0x0,%edi
 35b:	e8 00 00 00 00       	callq  360 <barrettsPrivateers+0x360>
 360:	bf 02 00 00 00       	mov    $0x2,%edi
 365:	e8 00 00 00 00       	callq  36a <barrettsPrivateers+0x36a>
 36a:	bf 00 00 00 00       	mov    $0x0,%edi
 36f:	e8 00 00 00 00       	callq  374 <barrettsPrivateers+0x374>
 374:	bf 02 00 00 00       	mov    $0x2,%edi
 379:	e8 00 00 00 00       	callq  37e <barrettsPrivateers+0x37e>
 37e:	bf 00 00 00 00       	mov    $0x0,%edi
 383:	e8 00 00 00 00       	callq  388 <barrettsPrivateers+0x388>
 388:	bf 02 00 00 00       	mov    $0x2,%edi
 38d:	e8 00 00 00 00       	callq  392 <barrettsPrivateers+0x392>
 392:	bf 00 00 00 00       	mov    $0x0,%edi
 397:	e8 00 00 00 00       	callq  39c <barrettsPrivateers+0x39c>
 39c:	bf 02 00 00 00       	mov    $0x2,%edi
 3a1:	e8 00 00 00 00       	callq  3a6 <barrettsPrivateers+0x3a6>
 3a6:	bf 00 00 00 00       	mov    $0x0,%edi
 3ab:	e8 00 00 00 00       	callq  3b0 <barrettsPrivateers+0x3b0>
 3b0:	bf 02 00 00 00       	mov    $0x2,%edi
 3b5:	e8 00 00 00 00       	callq  3ba <barrettsPrivateers+0x3ba>
 3ba:	bf 00 00 00 00       	mov    $0x0,%edi
 3bf:	e8 00 00 00 00       	callq  3c4 <barrettsPrivateers+0x3c4>
 3c4:	bf 02 00 00 00       	mov    $0x2,%edi
 3c9:	e8 00 00 00 00       	callq  3ce <barrettsPrivateers+0x3ce>
 3ce:	bf 00 00 00 00       	mov    $0x0,%edi
 3d3:	e8 00 00 00 00       	callq  3d8 <barrettsPrivateers+0x3d8>
 3d8:	bf 02 00 00 00       	mov    $0x2,%edi
 3dd:	e8 00 00 00 00       	callq  3e2 <barrettsPrivateers+0x3e2>
 3e2:	bf 00 00 00 00       	mov    $0x0,%edi
 3e7:	e8 00 00 00 00       	callq  3ec <barrettsPrivateers+0x3ec>
 3ec:	bf 02 00 00 00       	mov    $0x2,%edi
 3f1:	e8 00 00 00 00       	callq  3f6 <barrettsPrivateers+0x3f6>
 3f6:	bf 00 00 00 00       	mov    $0x0,%edi
 3fb:	e8 00 00 00 00       	callq  400 <barrettsPrivateers+0x400>
 400:	bf 01 00 00 00       	mov    $0x1,%edi
 405:	e8 00 00 00 00       	callq  40a <barrettsPrivateers+0x40a>
 40a:	bf 00 00 00 00       	mov    $0x0,%edi
 40f:	e8 00 00 00 00       	callq  414 <barrettsPrivateers+0x414>
 414:	bf 02 00 00 00       	mov    $0x2,%edi
 419:	e8 00 00 00 00       	callq  41e <barrettsPrivateers+0x41e>
 41e:	bf 00 00 00 00       	mov    $0x0,%edi
 423:	e8 00 00 00 00       	callq  428 <barrettsPrivateers+0x428>
 428:	bf 02 00 00 00       	mov    $0x2,%edi
 42d:	e8 00 00 00 00       	callq  432 <barrettsPrivateers+0x432>
 432:	bf 00 00 00 00       	mov    $0x0,%edi
 437:	e8 00 00 00 00       	callq  43c <barrettsPrivateers+0x43c>
 43c:	bf 02 00 00 00       	mov    $0x2,%edi
 441:	e8 00 00 00 00       	callq  446 <barrettsPrivateers+0x446>
 446:	bf 00 00 00 00       	mov    $0x0,%edi
 44b:	e8 00 00 00 00       	callq  450 <barrettsPrivateers+0x450>
 450:	bf 02 00 00 00       	mov    $0x2,%edi
 455:	e8 00 00 00 00       	callq  45a <barrettsPrivateers+0x45a>
 45a:	bf 00 00 00 00       	mov    $0x0,%edi
 45f:	e8 00 00 00 00       	callq  464 <barrettsPrivateers+0x464>
 464:	bf 02 00 00 00       	mov    $0x2,%edi
 469:	e8 00 00 00 00       	callq  46e <barrettsPrivateers+0x46e>
 46e:	bf 00 00 00 00       	mov    $0x0,%edi
 473:	e8 00 00 00 00       	callq  478 <barrettsPrivateers+0x478>
 478:	bf 02 00 00 00       	mov    $0x2,%edi
 47d:	e8 00 00 00 00       	callq  482 <barrettsPrivateers+0x482>
 482:	bf 00 00 00 00       	mov    $0x0,%edi
 487:	e8 00 00 00 00       	callq  48c <barrettsPrivateers+0x48c>
 48c:	bf 02 00 00 00       	mov    $0x2,%edi
 491:	e8 00 00 00 00       	callq  496 <barrettsPrivateers+0x496>
 496:	bf 00 00 00 00       	mov    $0x0,%edi
 49b:	e8 00 00 00 00       	callq  4a0 <barrettsPrivateers+0x4a0>
 4a0:	bf 02 00 00 00       	mov    $0x2,%edi
 4a5:	e8 00 00 00 00       	callq  4aa <barrettsPrivateers+0x4aa>
 4aa:	bf 00 00 00 00       	mov    $0x0,%edi
 4af:	e8 00 00 00 00       	callq  4b4 <barrettsPrivateers+0x4b4>
 4b4:	bf 01 00 00 00       	mov    $0x1,%edi
 4b9:	e8 00 00 00 00       	callq  4be <barrettsPrivateers+0x4be>
 4be:	bf 00 00 00 00       	mov    $0x0,%edi
 4c3:	e8 00 00 00 00       	callq  4c8 <barrettsPrivateers+0x4c8>
 4c8:	bf 02 00 00 00       	mov    $0x2,%edi
 4cd:	e8 00 00 00 00       	callq  4d2 <barrettsPrivateers+0x4d2>
 4d2:	bf 00 00 00 00       	mov    $0x0,%edi
 4d7:	e8 00 00 00 00       	callq  4dc <barrettsPrivateers+0x4dc>
 4dc:	bf 02 00 00 00       	mov    $0x2,%edi
 4e1:	e8 00 00 00 00       	callq  4e6 <barrettsPrivateers+0x4e6>
 4e6:	bf 00 00 00 00       	mov    $0x0,%edi
 4eb:	e8 00 00 00 00       	callq  4f0 <barrettsPrivateers+0x4f0>
 4f0:	bf 02 00 00 00       	mov    $0x2,%edi
 4f5:	e8 00 00 00 00       	callq  4fa <barrettsPrivateers+0x4fa>
 4fa:	bf 00 00 00 00       	mov    $0x0,%edi
 4ff:	e8 00 00 00 00       	callq  504 <barrettsPrivateers+0x504>
 504:	bf 02 00 00 00       	mov    $0x2,%edi
 509:	e8 00 00 00 00       	callq  50e <barrettsPrivateers+0x50e>
 50e:	bf 00 00 00 00       	mov    $0x0,%edi
 513:	e8 00 00 00 00       	callq  518 <barrettsPrivateers+0x518>
 518:	bf 02 00 00 00       	mov    $0x2,%edi
 51d:	e8 00 00 00 00       	callq  522 <barrettsPrivateers+0x522>
 522:	bf 00 00 00 00       	mov    $0x0,%edi
 527:	e8 00 00 00 00       	callq  52c <barrettsPrivateers+0x52c>
 52c:	bf 02 00 00 00       	mov    $0x2,%edi
 531:	e8 00 00 00 00       	callq  536 <barrettsPrivateers+0x536>
 536:	bf 00 00 00 00       	mov    $0x0,%edi
 53b:	e8 00 00 00 00       	callq  540 <barrettsPrivateers+0x540>
 540:	bf 02 00 00 00       	mov    $0x2,%edi
 545:	e8 00 00 00 00       	callq  54a <barrettsPrivateers+0x54a>
 54a:	bf 00 00 00 00       	mov    $0x0,%edi
 54f:	e8 00 00 00 00       	callq  554 <barrettsPrivateers+0x554>
 554:	bf 02 00 00 00       	mov    $0x2,%edi
 559:	e8 00 00 00 00       	callq  55e <barrettsPrivateers+0x55e>
 55e:	bf 00 00 00 00       	mov    $0x0,%edi
 563:	e8 00 00 00 00       	callq  568 <barrettsPrivateers+0x568>
 568:	bf 01 00 00 00       	mov    $0x1,%edi
 56d:	e8 00 00 00 00       	callq  572 <barrettsPrivateers+0x572>
 572:	bf 00 00 00 00       	mov    $0x0,%edi
 577:	e8 00 00 00 00       	callq  57c <barrettsPrivateers+0x57c>
 57c:	bf 02 00 00 00       	mov    $0x2,%edi
 581:	e8 00 00 00 00       	callq  586 <barrettsPrivateers+0x586>
 586:	bf 00 00 00 00       	mov    $0x0,%edi
 58b:	e8 00 00 00 00       	callq  590 <barrettsPrivateers+0x590>
 590:	bf 02 00 00 00       	mov    $0x2,%edi
 595:	e8 00 00 00 00       	callq  59a <barrettsPrivateers+0x59a>
 59a:	bf 00 00 00 00       	mov    $0x0,%edi
 59f:	e8 00 00 00 00       	callq  5a4 <barrettsPrivateers+0x5a4>
 5a4:	bf 02 00 00 00       	mov    $0x2,%edi
 5a9:	e8 00 00 00 00       	callq  5ae <barrettsPrivateers+0x5ae>
 5ae:	bf 00 00 00 00       	mov    $0x0,%edi
 5b3:	e8 00 00 00 00       	callq  5b8 <barrettsPrivateers+0x5b8>
 5b8:	bf 02 00 00 00       	mov    $0x2,%edi
 5bd:	e8 00 00 00 00       	callq  5c2 <barrettsPrivateers+0x5c2>
 5c2:	bf 00 00 00 00       	mov    $0x0,%edi
 5c7:	e8 00 00 00 00       	callq  5cc <barrettsPrivateers+0x5cc>
 5cc:	bf 03 00 00 00       	mov    $0x3,%edi
 5d1:	e8 00 00 00 00       	callq  5d6 <barrettsPrivateers+0x5d6>
 5d6:	bf 00 00 00 00       	mov    $0x0,%edi
 5db:	e8 00 00 00 00       	callq  5e0 <barrettsPrivateers+0x5e0>
 5e0:	bf 03 00 00 00       	mov    $0x3,%edi
 5e5:	e8 00 00 00 00       	callq  5ea <barrettsPrivateers+0x5ea>
 5ea:	bf 00 00 00 00       	mov    $0x0,%edi
 5ef:	e8 00 00 00 00       	callq  5f4 <barrettsPrivateers+0x5f4>
 5f4:	bf 03 00 00 00       	mov    $0x3,%edi
 5f9:	e8 00 00 00 00       	callq  5fe <barrettsPrivateers+0x5fe>
 5fe:	bf 00 00 00 00       	mov    $0x0,%edi
 603:	e8 00 00 00 00       	callq  608 <barrettsPrivateers+0x608>
 608:	bf 03 00 00 00       	mov    $0x3,%edi
 60d:	e8 00 00 00 00       	callq  612 <barrettsPrivateers+0x612>
 612:	bf 00 00 00 00       	mov    $0x0,%edi
 617:	e8 00 00 00 00       	callq  61c <barrettsPrivateers+0x61c>
 61c:	bf 02 00 00 00       	mov    $0x2,%edi
 621:	e8 00 00 00 00       	callq  626 <barrettsPrivateers+0x626>
 626:	bf 00 00 00 00       	mov    $0x0,%edi
 62b:	e8 00 00 00 00       	callq  630 <barrettsPrivateers+0x630>
 630:	bf 03 00 00 00       	mov    $0x3,%edi
 635:	e8 00 00 00 00       	callq  63a <barrettsPrivateers+0x63a>
 63a:	bf 00 00 00 00       	mov    $0x0,%edi
 63f:	e8 00 00 00 00       	callq  644 <barrettsPrivateers+0x644>
 644:	bf 03 00 00 00       	mov    $0x3,%edi
 649:	e8 00 00 00 00       	callq  64e <barrettsPrivateers+0x64e>
 64e:	bf 00 00 00 00       	mov    $0x0,%edi
 653:	e8 00 00 00 00       	callq  658 <barrettsPrivateers+0x658>
 658:	bf 03 00 00 00       	mov    $0x3,%edi
 65d:	e8 00 00 00 00       	callq  662 <barrettsPrivateers+0x662>
 662:	bf 00 00 00 00       	mov    $0x0,%edi
 667:	e8 00 00 00 00       	callq  66c <barrettsPrivateers+0x66c>
 66c:	bf 04 00 00 00       	mov    $0x4,%edi
 671:	e8 00 00 00 00       	callq  676 <barrettsPrivateers+0x676>
 676:	bf 00 00 00 00       	mov    $0x0,%edi
 67b:	e8 00 00 00 00       	callq  680 <barrettsPrivateers+0x680>
 680:	90                   	nop
 681:	5d                   	pop    %rbp
 682:	c3                   	retq   
