
products.o:     file format elf64-x86-64


Disassembly of section .text:

0000000000000000 <prod2>:
   0:	55                   	push   %rbp
   1:	48 89 e5             	mov    %rsp,%rbp
   4:	89 7d fc             	mov    %edi,-0x4(%rbp)
   7:	89 75 f8             	mov    %esi,-0x8(%rbp)
   a:	8b 05 00 00 00 00    	mov    0x0(%rip),%eax        # 10 <prod2+0x10>
  10:	0f af 45 fc          	imul   -0x4(%rbp),%eax
  14:	89 05 00 00 00 00    	mov    %eax,0x0(%rip)        # 1a <prod2+0x1a>
  1a:	8b 45 fc             	mov    -0x4(%rbp),%eax
  1d:	0f af 45 f8          	imul   -0x8(%rbp),%eax
  21:	5d                   	pop    %rbp
  22:	c3                   	retq   

0000000000000023 <prod3>:
  23:	55                   	push   %rbp
  24:	48 89 e5             	mov    %rsp,%rbp
  27:	89 7d fc             	mov    %edi,-0x4(%rbp)
  2a:	89 75 f8             	mov    %esi,-0x8(%rbp)
  2d:	89 55 f4             	mov    %edx,-0xc(%rbp)
  30:	8b 45 fc             	mov    -0x4(%rbp),%eax
  33:	0f af 45 f8          	imul   -0x8(%rbp),%eax
  37:	0f af 45 f4          	imul   -0xc(%rbp),%eax
  3b:	5d                   	pop    %rbp
  3c:	c3                   	retq   

000000000000003d <prod4>:
  3d:	55                   	push   %rbp
  3e:	48 89 e5             	mov    %rsp,%rbp
  41:	89 7d fc             	mov    %edi,-0x4(%rbp)
  44:	89 75 f8             	mov    %esi,-0x8(%rbp)
  47:	89 55 f4             	mov    %edx,-0xc(%rbp)
  4a:	89 4d f0             	mov    %ecx,-0x10(%rbp)
  4d:	8b 45 fc             	mov    -0x4(%rbp),%eax
  50:	0f af 45 f8          	imul   -0x8(%rbp),%eax
  54:	0f af 45 f4          	imul   -0xc(%rbp),%eax
  58:	0f af 45 f0          	imul   -0x10(%rbp),%eax
  5c:	5d                   	pop    %rbp
  5d:	c3                   	retq   
